(lp0
(imodels.rectangle_obstacle
RectangleObstacle
p1
(dp2
S'geometry'
p3
(imodels.polygon
Polygon
p4
(dp5
S'vertexes'
p6
(lp7
(lp8
F0.7449501109275085
aF0.12544723189751172
aa(lp9
F0.7449501109275085
aF-0.12544723189751172
aa(lp10
F-0.7449501109275085
aF-0.12544723189751172
aa(lp11
F-0.7449501109275085
aF0.12544723189751172
aasS'bounding_circle'
p12
((lp13
F0.0
aF0.0
aF0.7554387306470693
tp14
sbsS'width'
p15
F1.489900221855017
sS'pose'
p16
(imodels.pose
Pose
p17
(dp18
S'y'
p19
F-1.2092337736393217
sS'x'
p20
F0.6710880632554099
sS'theta'
p21
F-0.10608147129865841
sbsS'global_geometry'
p22
(imodels.polygon
Polygon
p23
(dp24
g6
(lp25
(lp26
F1.4251332197912367
aF-1.1633689977593955
aa(lp27
F1.3985678559957984
aF-1.4128530922612461
aa(lp28
F-0.0829570932804169
aF-1.255098549519248
aa(lp29
F-0.0563917294849785
aF-1.0056144550173973
aasg12
((lp30
F0.6710880632554099
aF-1.2092337736393217
aF0.7554387306470693
tp31
sbsS'height'
p32
F0.25089446379502345
sba(imodels.rectangle_obstacle
RectangleObstacle
p33
(dp34
g3
(imodels.polygon
Polygon
p35
(dp36
g6
(lp37
(lp38
F0.21174866863659764
aF0.1502451965644886
aa(lp39
F0.21174866863659764
aF-0.1502451965644886
aa(lp40
F-0.21174866863659764
aF-0.1502451965644886
aa(lp41
F-0.21174866863659764
aF0.1502451965644886
aasg12
((lp42
F0.0
aF0.0
aF0.25963651083788936
tp43
sbsg15
F0.4234973372731953
sg16
(imodels.pose
Pose
p44
(dp45
g19
F-0.9695571253839712
sg20
F-2.7134592207567034
sg21
F-2.4064212245689918
sbsg22
(imodels.polygon
Polygon
p46
(dp47
g6
(lp48
(lp49
F-2.76974494619898
aF-1.2230192228887267
aa(lp50
F-2.971288155022602
aF-1.0001407552434982
aa(lp51
F-2.657173495314427
aF-0.7160950278792158
aa(lp52
F-2.455630286490805
aF-0.9389734955244442
aasg12
((lp53
F-2.713459220756704
aF-0.9695571253839712
aF0.2596365108378899
tp54
sbsg32
F0.3004903931289772
sba(imodels.rectangle_obstacle
RectangleObstacle
p55
(dp56
g3
(imodels.polygon
Polygon
p57
(dp58
g6
(lp59
(lp60
F0.4826419271815219
aF0.05070947275743052
aa(lp61
F0.4826419271815219
aF-0.05070947275743052
aa(lp62
F-0.4826419271815219
aF-0.05070947275743052
aa(lp63
F-0.4826419271815219
aF0.05070947275743052
aasg12
((lp64
F0.0
aF0.0
aF0.4852985478041636
tp65
sbsg15
F0.9652838543630438
sg16
(imodels.pose
Pose
p66
(dp67
g19
F-1.23341240438732
sg20
F0.19654978155222205
sg21
F-2.089848275716834
sbsg22
(imodels.polygon
Polygon
p68
(dp69
g6
(lp70
(lp71
F0.0011623101532169666
aF-1.6776402924370608
aa(lp72
F-0.08689873158139785
aF-1.6273306965535639
aa(lp73
F0.39193725295122717
aF-0.7891845163375792
aa(lp74
F0.479998294685842
aF-0.8394941122210763
aasg12
((lp75
F0.19654978155222208
aF-1.23341240438732
aF0.4852985478041637
tp76
sbsg32
F0.10141894551486104
sba(imodels.rectangle_obstacle
RectangleObstacle
p77
(dp78
g3
(imodels.polygon
Polygon
p79
(dp80
g6
(lp81
(lp82
F0.6007060693322916
aF0.517539656363788
aa(lp83
F0.6007060693322916
aF-0.517539656363788
aa(lp84
F-0.6007060693322916
aF-0.517539656363788
aa(lp85
F-0.6007060693322916
aF0.517539656363788
aasg12
((lp86
F0.0
aF0.0
aF0.7929029433933258
tp87
sbsg15
F1.2014121386645833
sg16
(imodels.pose
Pose
p88
(dp89
g19
F3.624547704136888
sg20
F-1.1221644090456695
sg21
F0.4317191857543623
sbsg22
(imodels.polygon
Polygon
p90
(dp91
g6
(lp92
(lp93
F-0.7931300881092603
aF4.345957083953727
aa(lp94
F-0.36001888415111394
aF3.40584864944071
aa(lp95
F-1.4511987299820786
aF2.9031383243200493
aa(lp96
F-1.8843099339402252
aF3.8432467588330663
aasg12
((lp97
F-1.1221644090456695
aF3.624547704136888
aF0.792902943393326
tp98
sbsg32
F1.035079312727576
sba(imodels.rectangle_obstacle
RectangleObstacle
p99
(dp100
g3
(imodels.polygon
Polygon
p101
(dp102
g6
(lp103
(lp104
F1.0481913298742873
aF0.12500321028870193
aa(lp105
F1.0481913298742873
aF-0.12500321028870193
aa(lp106
F-1.0481913298742873
aF-0.12500321028870193
aa(lp107
F-1.0481913298742873
aF0.12500321028870193
aasg12
((lp108
F0.0
aF0.0
aF1.055618712701754
tp109
sbsg15
F2.0963826597485746
sg16
(imodels.pose
Pose
p110
(dp111
g19
F1.6497466144985007
sg20
F1.2230979706558343
sg21
F-2.432977741278648
sbsg22
(imodels.polygon
Polygon
p112
(dp113
g6
(lp114
(lp115
F0.5085939665654967
aF0.8726913431406755
aa(lp116
F0.3458941010649176
aF1.062512216850653
aa(lp117
F1.9376019747461717
aF2.426801885856326
aa(lp118
F2.100301840246751
aF2.2369810121463485
aasg12
((lp119
F1.223097970655834
aF1.6497466144985005
aF1.0556187127017544
tp120
sbsg32
F0.25000642057740385
sba(imodels.rectangle_obstacle
RectangleObstacle
p121
(dp122
g3
(imodels.polygon
Polygon
p123
(dp124
g6
(lp125
(lp126
F0.8692463950305945
aF0.1650331165770674
aa(lp127
F0.8692463950305945
aF-0.1650331165770674
aa(lp128
F-0.8692463950305945
aF-0.1650331165770674
aa(lp129
F-0.8692463950305945
aF0.1650331165770674
aasg12
((lp130
F0.0
aF0.0
aF0.884774109499608
tp131
sbsg15
F1.738492790061189
sg16
(imodels.pose
Pose
p132
(dp133
g19
F-0.6899354147936922
sg20
F-0.09051590500054857
sg21
F0.0013746392585312073
sbsg22
(imodels.polygon
Polygon
p134
(dp135
g6
(lp136
(lp137
F0.7785028078222418
aF-0.5237075542989941
aa(lp138
F0.7789565296813563
aF-0.8537734756011398
aa(lp139
F-0.959534617823339
aF-0.8561632752883904
aa(lp140
F-0.9599883396824536
aF-0.5260973539862447
aasg12
((lp141
F-0.09051590500054862
aF-0.6899354147936922
aF0.884774109499608
tp142
sbsg32
F0.3300662331541348
sba(imodels.rectangle_obstacle
RectangleObstacle
p143
(dp144
g3
(imodels.polygon
Polygon
p145
(dp146
g6
(lp147
(lp148
F0.1205628563585667
aF0.24550012874982513
aa(lp149
F0.1205628563585667
aF-0.24550012874982513
aa(lp150
F-0.1205628563585667
aF-0.24550012874982513
aa(lp151
F-0.1205628563585667
aF0.24550012874982513
aasg12
((lp152
F0.0
aF0.0
aF0.273506335483325
tp153
sbsg15
F0.2411257127171334
sg16
(imodels.pose
Pose
p154
(dp155
g19
F0.3300819617283626
sg20
F3.217123710246034
sg21
F2.1622689926715086
sbsg22
(imodels.polygon
Polygon
p156
(dp157
g6
(lp158
(lp159
F2.946105100430785
aF0.29327668108377275
aa(lp160
F3.3536944524133387
aF0.5670506261829453
aa(lp161
F3.4881423200612827
aF0.3668872423729525
aa(lp162
F3.080552968078729
aF0.09311329727377993
aasg12
((lp163
F3.217123710246034
aF0.3300819617283627
aF0.2735063354833249
tp164
sbsg32
F0.49100025749965026
sba(imodels.rectangle_obstacle
RectangleObstacle
p165
(dp166
g3
(imodels.polygon
Polygon
p167
(dp168
g6
(lp169
(lp170
F0.07277775838345604
aF0.9300731135061361
aa(lp171
F0.07277775838345604
aF-0.9300731135061361
aa(lp172
F-0.07277775838345604
aF-0.9300731135061361
aa(lp173
F-0.07277775838345604
aF0.9300731135061361
aasg12
((lp174
F0.0
aF0.0
aF0.932916179826633
tp175
sbsg15
F0.14555551676691209
sg16
(imodels.pose
Pose
p176
(dp177
g19
F-2.49164099158556
sg20
F3.190020369346401
sg21
F-2.709132380068097
sbsg22
(imodels.polygon
Polygon
p178
(dp179
g6
(lp180
(lp181
F3.5137417980057095
aF-3.3665907245468856
aa(lp182
F2.7341436456319586
aF-1.677694426166365
aa(lp183
F2.8662989406870927
aF-1.6166912586242348
aa(lp184
F3.6458970930608436
aF-3.3055875570047553
aasg12
((lp185
F3.190020369346401
aF-2.4916409915855597
aF0.9329161798266332
tp186
sbsg32
F1.8601462270122722
sba(imodels.rectangle_obstacle
RectangleObstacle
p187
(dp188
g3
(imodels.polygon
Polygon
p189
(dp190
g6
(lp191
(lp192
F0.45672139602241013
aF0.6755642972755865
aa(lp193
F0.45672139602241013
aF-0.6755642972755865
aa(lp194
F-0.45672139602241013
aF-0.6755642972755865
aa(lp195
F-0.45672139602241013
aF0.6755642972755865
aasg12
((lp196
F0.0
aF0.0
aF0.8154640110624848
tp197
sbsg15
F0.9134427920448203
sg16
(imodels.pose
Pose
p198
(dp199
g19
F2.965815779640584
sg20
F4.547458408612557
sg21
F-0.25523183647707715
sbsg22
(imodels.polygon
Polygon
p200
(dp201
g6
(lp202
(lp203
F5.159943762599831
aF3.5041866968428415
aa(lp204
F4.818824675596217
aF2.196828196853015
aa(lp205
F3.934973054625283
aF2.427444862438327
aa(lp206
F4.276092141628896
aF3.7348033624281536
aasg12
((lp207
F4.547458408612557
aF2.965815779640584
aF0.8154640110624848
tp208
sbsg32
F1.351128594551173
sba(imodels.rectangle_obstacle
RectangleObstacle
p209
(dp210
g3
(imodels.polygon
Polygon
p211
(dp212
g6
(lp213
(lp214
F0.4091792811396433
aF0.8487047498710375
aa(lp215
F0.4091792811396433
aF-0.8487047498710375
aa(lp216
F-0.4091792811396433
aF-0.8487047498710375
aa(lp217
F-0.4091792811396433
aF0.8487047498710375
aasg12
((lp218
F0.0
aF0.0
aF0.9421928871349091
tp219
sbsg15
F0.8183585622792866
sg16
(imodels.pose
Pose
p220
(dp221
g19
F-0.9909441214462199
sg20
F-2.803530554740921
sg21
F0.5663798605100787
sbsg22
(imodels.polygon
Polygon
p222
(dp223
g6
(lp224
(lp225
F-2.9136436346434023
aF-0.05520775568821146
aa(lp226
F-2.0028464224944162
aF-1.4875650603284596
aa(lp227
F-2.69341747483844
aF-1.9266804872042282
aa(lp228
F-3.604214686987426
aF-0.49432318256398033
aasg12
((lp229
F-2.803530554740921
aF-0.9909441214462199
aF0.9421928871349091
tp230
sbsg32
F1.697409499742075
sba(imodels.rectangle_obstacle
RectangleObstacle
p231
(dp232
g3
(imodels.polygon
Polygon
p233
(dp234
g6
(lp235
(lp236
F0.10948796681374322
aF0.49993942596530005
aa(lp237
F0.10948796681374322
aF-0.49993942596530005
aa(lp238
F-0.10948796681374322
aF-0.49993942596530005
aa(lp239
F-0.10948796681374322
aF0.49993942596530005
aasg12
((lp240
F0.0
aF0.0
aF0.5117880855505734
tp241
sbsg15
F0.21897593362748644
sg16
(imodels.pose
Pose
p242
(dp243
g19
F-0.12005829619176314
sg20
F2.6942566646197728
sg21
F1.3021354191477181
sbsg22
(imodels.polygon
Polygon
p244
(dp245
g6
(lp246
(lp247
F2.241314014362179
aF0.11820626283695207
aa(lp248
F3.2053244223966852
aF-0.14720219923462508
aa(lp249
F3.1471993148773665
aF-0.35832285522047835
aa(lp250
F2.1831889068428603
aF-0.09291439314890121
aasg12
((lp251
F2.6942566646197723
aF-0.12005829619176314
aF0.511788085550574
tp252
sbsg32
F0.9998788519306001
sba(imodels.rectangle_obstacle
RectangleObstacle
p253
(dp254
g3
(imodels.polygon
Polygon
p255
(dp256
g6
(lp257
(lp258
F0.8414108507845777
aF0.054155786569365684
aa(lp259
F0.8414108507845777
aF-0.054155786569365684
aa(lp260
F-0.8414108507845777
aF-0.054155786569365684
aa(lp261
F-0.8414108507845777
aF0.054155786569365684
aasg12
((lp262
F0.0
aF0.0
aF0.8431518659393298
tp263
sbsg15
F1.6828217015691553
sg16
(imodels.pose
Pose
p264
(dp265
g19
F-4.293337368545542
sg20
F2.925393437552114
sg21
F-0.8615369800109125
sbsg22
(imodels.polygon
Polygon
p266
(dp267
g6
(lp268
(lp269
F3.514476506812074
aF-4.896567180929047
aa(lp270
F3.4322848705871056
aF-4.967107465947249
aa(lp271
F2.3363103682921538
aF-3.6901075561620367
aa(lp272
F2.418502004517122
aF-3.6195672711438345
aasg12
((lp273
F2.9253934375521133
aF-4.293337368545542
aF0.8431518659393302
tp274
sbsg32
F0.10831157313873137
sba(imodels.rectangle_obstacle
RectangleObstacle
p275
(dp276
g3
(imodels.polygon
Polygon
p277
(dp278
g6
(lp279
(lp280
F0.4263967775166386
aF0.3106584203384478
aa(lp281
F0.4263967775166386
aF-0.3106584203384478
aa(lp282
F-0.4263967775166386
aF-0.3106584203384478
aa(lp283
F-0.4263967775166386
aF0.3106584203384478
aasg12
((lp284
F0.0
aF0.0
aF0.5275631393527732
tp285
sbsg15
F0.8527935550332773
sg16
(imodels.pose
Pose
p286
(dp287
g19
F4.621064604286716
sg20
F-0.9039065325402266
sg21
F-1.6529973316315025
sbsg22
(imodels.polygon
Polygon
p288
(dp289
g6
(lp290
(lp291
F-0.6293078660830117
aF4.170599912680734
aa(lp292
F-1.248526767913975
aF4.221615284128707
aa(lp293
F-1.1785051989974415
aF5.071529295892699
aa(lp294
F-0.559286297166478
aF5.020513924444725
aasg12
((lp295
F-0.9039065325402267
aF4.621064604286716
aF0.5275631393527732
tp296
sbsg32
F0.6213168406768956
sba(imodels.rectangle_obstacle
RectangleObstacle
p297
(dp298
g3
(imodels.polygon
Polygon
p299
(dp300
g6
(lp301
(lp302
F1.042618649884241
aF0.09132668285349896
aa(lp303
F1.042618649884241
aF-0.09132668285349896
aa(lp304
F-1.042618649884241
aF-0.09132668285349896
aa(lp305
F-1.042618649884241
aF0.09132668285349896
aasg12
((lp306
F0.0
aF0.0
aF1.046610821694225
tp307
sbsg15
F2.085237299768482
sg16
(imodels.pose
Pose
p308
(dp309
g19
F-0.7273880368274697
sg20
F-0.6579510679389293
sg21
F-1.6901086337084128
sbsg22
(imodels.polygon
Polygon
p310
(dp311
g6
(lp312
(lp313
F-0.6913759565290795
aF-1.7734649885428762
aa(lp314
F-0.8727307894751303
aF-1.7517238622794027
aa(lp315
F-0.6245261793487792
aF0.3186889148879368
aa(lp316
F-0.44317134640272837
aF0.29694778862446336
aasg12
((lp317
F-0.6579510679389293
aF-0.7273880368274697
aF1.0466108216942251
tp318
sbsg32
F0.18265336570699792
sba(imodels.rectangle_obstacle
RectangleObstacle
p319
(dp320
g3
(imodels.polygon
Polygon
p321
(dp322
g6
(lp323
(lp324
F1.035205767721472
aF0.20343409486661146
aa(lp325
F1.035205767721472
aF-0.20343409486661146
aa(lp326
F-1.035205767721472
aF-0.20343409486661146
aa(lp327
F-1.035205767721472
aF0.20343409486661146
aasg12
((lp328
F0.0
aF0.0
aF1.0550054087434813
tp329
sbsg15
F2.070411535442944
sg16
(imodels.pose
Pose
p330
(dp331
g19
F4.577490451073724
sg20
F0.9808523659146772
sg21
F-2.4946684116717535
sbsg22
(imodels.polygon
Polygon
p332
(dp333
g6
(lp334
(lp335
F0.2774356343046639
aF3.791207223369428
aa(lp336
F0.03220194174216118
aF4.115864211356672
aa(lp337
F1.6842690975246906
aF5.363773678778021
aa(lp338
F1.9295027900871933
aF5.0391166907907765
aasg12
((lp339
F0.9808523659146773
aF4.577490451073724
aF1.0550054087434813
tp340
sbsg32
F0.4068681897332229
sba(imodels.rectangle_obstacle
RectangleObstacle
p341
(dp342
g3
(imodels.polygon
Polygon
p343
(dp344
g6
(lp345
(lp346
F0.5910469740663186
aF0.0550214597364497
aa(lp347
F0.5910469740663186
aF-0.0550214597364497
aa(lp348
F-0.5910469740663186
aF-0.0550214597364497
aa(lp349
F-0.5910469740663186
aF0.0550214597364497
aasg12
((lp350
F0.0
aF0.0
aF0.593602465109842
tp351
sbsg15
F1.1820939481326371
sg16
(imodels.pose
Pose
p352
(dp353
g19
F-0.5948865934949581
sg20
F2.0342731863427748
sg21
F1.238321333241446
sbsg22
(imodels.polygon
Polygon
p354
(dp355
g6
(lp356
(lp357
F2.175172812020412
aF-0.018248767759962647
aa(lp358
F2.279189499777988
aF-0.054164959012125924
aa(lp359
F1.8933735606651374
aF-1.1715244192299537
aa(lp360
F1.7893568729075615
aF-1.1356082279777904
aasg12
((lp361
F2.0342731863427748
aF-0.5948865934949581
aF0.5936024651098422
tp362
sbsg32
F0.1100429194728994
sba(imodels.rectangle_obstacle
RectangleObstacle
p363
(dp364
g3
(imodels.polygon
Polygon
p365
(dp366
g6
(lp367
(lp368
F1.1168542738723028
aF0.06730296903267594
aa(lp369
F1.1168542738723028
aF-0.06730296903267594
aa(lp370
F-1.1168542738723028
aF-0.06730296903267594
aa(lp371
F-1.1168542738723028
aF0.06730296903267594
aasg12
((lp372
F0.0
aF0.0
aF1.1188803147376587
tp373
sbsg15
F2.2337085477446057
sg16
(imodels.pose
Pose
p374
(dp375
g19
F-1.5110388302651905
sg20
F0.34017877834832955
sg21
F2.8089769650086485
sbsg22
(imodels.polygon
Polygon
p376
(dp377
g6
(lp378
(lp379
F-0.737437929851594
aF-1.2099817112399074
aa(lp380
F-0.6934868742203505
aF-1.082753321045923
aa(lp381
F1.4177954865482532
aF-1.8120959492904736
aa(lp382
F1.3738444309170097
aF-1.939324339484458
aasg12
((lp383
F0.3401787783483296
aF-1.5110388302651905
aF1.118880314737659
tp384
sbsg32
F0.13460593806535187
sba(imodels.rectangle_obstacle
RectangleObstacle
p385
(dp386
g3
(imodels.polygon
Polygon
p387
(dp388
g6
(lp389
(lp390
F0.5632495915970398
aF0.09996373663530234
aa(lp391
F0.5632495915970398
aF-0.09996373663530234
aa(lp392
F-0.5632495915970398
aF-0.09996373663530234
aa(lp393
F-0.5632495915970398
aF0.09996373663530234
aasg12
((lp394
F0.0
aF0.0
aF0.5720514409354497
tp395
sbsg15
F1.1264991831940796
sg16
(imodels.pose
Pose
p396
(dp397
g19
F2.802006693774269
sg20
F-2.902043836237833
sg21
F0.1599305459937841
sbsg22
(imodels.polygon
Polygon
p398
(dp399
g6
(lp400
(lp401
F-2.3619014298917094
aF2.9903920221386167
aa(lp402
F-2.3300630518791756
aF2.7930159540505644
aa(lp403
F-3.442186242583957
aF2.6136213654099216
aa(lp404
F-3.4740246205964906
aF2.810997433497974
aasg12
((lp405
F-2.9020438362378336
aF2.802006693774269
aF0.5720514409354504
tp406
sbsg32
F0.19992747327060467
sba(imodels.rectangle_obstacle
RectangleObstacle
p407
(dp408
g3
(imodels.polygon
Polygon
p409
(dp410
g6
(lp411
(lp412
F0.45757642433261725
aF0.3107124178522099
aa(lp413
F0.45757642433261725
aF-0.3107124178522099
aa(lp414
F-0.45757642433261725
aF-0.3107124178522099
aa(lp415
F-0.45757642433261725
aF0.3107124178522099
aasg12
((lp416
F0.0
aF0.0
aF0.5530988977683735
tp417
sbsg15
F0.9151528486652345
sg16
(imodels.pose
Pose
p418
(dp419
g19
F0.7651922537881636
sg20
F0.5700928775298657
sg21
F0.3957195437097685
sbsg22
(imodels.polygon
Polygon
p420
(dp421
g6
(lp422
(lp423
F0.8725365319505302
aF1.2282756443489387
aa(lp424
F1.1120785463548746
aF0.6548748684815058
aa(lp425
F0.26764922310920125
aF0.3021088632273885
aa(lp426
F0.028107208704856945
aF0.8755096390948214
aasg12
((lp427
F0.5700928775298657
aF0.7651922537881637
aF0.5530988977683736
tp428
sbsg32
F0.6214248357044198
sba(imodels.rectangle_obstacle
RectangleObstacle
p429
(dp430
g3
(imodels.polygon
Polygon
p431
(dp432
g6
(lp433
(lp434
F0.6554754582898911
aF0.39340983093755627
aa(lp435
F0.6554754582898911
aF-0.39340983093755627
aa(lp436
F-0.6554754582898911
aF-0.39340983093755627
aa(lp437
F-0.6554754582898911
aF0.39340983093755627
aasg12
((lp438
F0.0
aF0.0
aF0.7644732640836168
tp439
sbsg15
F1.3109509165797821
sg16
(imodels.pose
Pose
p440
(dp441
g19
F2.127720540051079
sg20
F2.676893527485298
sg21
F-1.9430600961788222
sbsg22
(imodels.polygon
Polygon
p442
(dp443
g6
(lp444
(lp445
F2.8049444185854115
aF1.3740479713668219
aa(lp446
F2.0720169124085075
aF1.6602340140079173
aa(lp447
F2.548842636385184
aF2.8813931087353364
aa(lp448
F3.281770142562088
aF2.595207066094241
aasg12
((lp449
F2.676893527485298
aF2.127720540051079
aF0.7644732640836172
tp450
sbsg32
F0.7868196618751125
sba(imodels.rectangle_obstacle
RectangleObstacle
p451
(dp452
g3
(imodels.polygon
Polygon
p453
(dp454
g6
(lp455
(lp456
F0.09713737435254695
aF0.7161974441555256
aa(lp457
F0.09713737435254695
aF-0.7161974441555256
aa(lp458
F-0.09713737435254695
aF-0.7161974441555256
aa(lp459
F-0.09713737435254695
aF0.7161974441555256
aasg12
((lp460
F0.0
aF0.0
aF0.722754763741488
tp461
sbsg15
F0.1942747487050939
sg16
(imodels.pose
Pose
p462
(dp463
g19
F1.351258078469936
sg20
F-0.8082461552193139
sg21
F1.0595651853754955
sbsg22
(imodels.polygon
Polygon
p464
(dp465
g6
(lp466
(lp467
F-1.3853480304343235
aF1.7863763085342867
aa(lp468
F-0.1360950972099455
aF1.085575177763284
aa(lp469
F-0.2311442800043042
aF0.916139848405585
aa(lp470
F-1.4803972132286822
aF1.6169409791765879
aasg12
((lp471
F-0.8082461552193139
aF1.351258078469936
aF0.722754763741488
tp472
sbsg32
F1.432394888311051
sba(imodels.rectangle_obstacle
RectangleObstacle
p473
(dp474
g3
(imodels.polygon
Polygon
p475
(dp476
g6
(lp477
(lp478
F0.744637382321951
aF0.450350020418532
aa(lp479
F0.744637382321951
aF-0.450350020418532
aa(lp480
F-0.744637382321951
aF-0.450350020418532
aa(lp481
F-0.744637382321951
aF0.450350020418532
aasg12
((lp482
F0.0
aF0.0
aF0.8702298386301516
tp483
sbsg15
F1.489274764643902
sg16
(imodels.pose
Pose
p484
(dp485
g19
F-1.006109463334878
sg20
F0.4190171984535033
sg21
F-2.069587038047266
sbsg22
(imodels.polygon
Polygon
p486
(dp487
g6
(lp488
(lp489
F0.45828966047648795
aF-1.8754526900117257
aa(lp490
F-0.3326706041449697
aF-1.4445902718851937
aa(lp491
F0.3797447364305187
aF-0.13676623665803034
aa(lp492
F1.1707050010519764
aF-0.5676286547845623
aasg12
((lp493
F0.4190171984535033
aF-1.006109463334878
aF0.8702298386301516
tp494
sbsg32
F0.900700040837064
sba(imodels.rectangle_obstacle
RectangleObstacle
p495
(dp496
g3
(imodels.polygon
Polygon
p497
(dp498
g6
(lp499
(lp500
F1.2096968500019734
aF0.05316192186797655
aa(lp501
F1.2096968500019734
aF-0.05316192186797655
aa(lp502
F-1.2096968500019734
aF-0.05316192186797655
aa(lp503
F-1.2096968500019734
aF0.05316192186797655
aasg12
((lp504
F0.0
aF0.0
aF1.2108644262845423
tp505
sbsg15
F2.4193937000039467
sg16
(imodels.pose
Pose
p506
(dp507
g19
F-2.511310928197803
sg20
F0.36915349352328836
sg21
F-0.567223434136872
sbsg22
(imodels.polygon
Polygon
p508
(dp509
g6
(lp510
(lp511
F1.4179705362654489
aF-3.116435270539922
aa(lp512
F1.3608435454122594
aF-3.2061083805721218
aa(lp513
F-0.6796635492188723
aF-1.9061865858556837
aa(lp514
F-0.6225365583656826
aF-1.8165134758234842
aasg12
((lp515
F0.36915349352328836
aF-2.511310928197803
aF1.2108644262845423
tp516
sbsg32
F0.1063238437359531
sba(imodels.rectangle_obstacle
RectangleObstacle
p517
(dp518
g3
(imodels.polygon
Polygon
p519
(dp520
g6
(lp521
(lp522
F1.2082336947977799
aF0.06740656027825764
aa(lp523
F1.2082336947977799
aF-0.06740656027825764
aa(lp524
F-1.2082336947977799
aF-0.06740656027825764
aa(lp525
F-1.2082336947977799
aF0.06740656027825764
aasg12
((lp526
F0.0
aF0.0
aF1.2101125177491725
tp527
sbsg15
F2.4164673895955597
sg16
(imodels.pose
Pose
p528
(dp529
g19
F-1.0790995109865547
sg20
F3.1096799720260657
sg21
F-0.7826607204389884
sbsg22
(imodels.polygon
Polygon
p530
(dp531
g6
(lp532
(lp533
F4.01389872288717
aF-1.8833138830319847
aa(lp534
F3.918832760963306
aF-1.9789017502415627
aa(lp535
F2.2054612211649616
aF-0.27488513894112476
aa(lp536
F2.3005271830888256
aF-0.17929727173154653
aasg12
((lp537
F3.1096799720260657
aF-1.0790995109865547
aF1.2101125177491723
tp538
sbsg32
F0.1348131205565153
sba(imodels.rectangle_obstacle
RectangleObstacle
p539
(dp540
g3
(imodels.polygon
Polygon
p541
(dp542
g6
(lp543
(lp544
F0.2250020213099463
aF0.5750613929383199
aa(lp545
F0.2250020213099463
aF-0.5750613929383199
aa(lp546
F-0.2250020213099463
aF-0.5750613929383199
aa(lp547
F-0.2250020213099463
aF0.5750613929383199
aasg12
((lp548
F0.0
aF0.0
aF0.6175123603959052
tp549
sbsg15
F0.4500040426198926
sg16
(imodels.pose
Pose
p550
(dp551
g19
F-0.9988808506700224
sg20
F0.8162738120505462
sg21
F-2.4631387640302127
sbsg22
(imodels.polygon
Polygon
p552
(dp553
g6
(lp554
(lp555
F1.0020026584666664
aF-1.5878004639031524
aa(lp556
F0.28019703067645785
aF-0.692379301386303
aa(lp557
F0.630544965634426
aF-0.4099612374368923
aa(lp558
F1.3523505934246345
aF-1.305382399953742
aasg12
((lp559
F0.8162738120505462
aF-0.9988808506700224
aF0.6175123603959053
tp560
sbsg32
F1.1501227858766399
sba(imodels.rectangle_obstacle
RectangleObstacle
p561
(dp562
g3
(imodels.polygon
Polygon
p563
(dp564
g6
(lp565
(lp566
F0.395510134166176
aF0.2980065571305553
aa(lp567
F0.395510134166176
aF-0.2980065571305553
aa(lp568
F-0.395510134166176
aF-0.2980065571305553
aa(lp569
F-0.395510134166176
aF0.2980065571305553
aasg12
((lp570
F0.0
aF0.0
aF0.4952132614550558
tp571
sbsg15
F0.791020268332352
sg16
(imodels.pose
Pose
p572
(dp573
g19
F-0.5183148881657695
sg20
F1.0716283939139462
sg21
F1.5728527759146438
sbsg22
(imodels.polygon
Polygon
p574
(dp575
g6
(lp576
(lp577
F0.7728091210215122
aF-0.12341842519225721
aa(lp578
F1.3688209750184084
aF-0.12219275541196706
aa(lp579
F1.37044766680638
aF-0.9132113511392819
aa(lp580
F0.7744358128094839
aF-0.914437020919572
aasg12
((lp581
F1.0716283939139462
aF-0.5183148881657695
aF0.49521326145505584
tp582
sbsg32
F0.5960131142611106
sba(imodels.rectangle_obstacle
RectangleObstacle
p583
(dp584
g3
(imodels.polygon
Polygon
p585
(dp586
g6
(lp587
(lp588
F0.6601284230410649
aF0.37714297021765253
aa(lp589
F0.6601284230410649
aF-0.37714297021765253
aa(lp590
F-0.6601284230410649
aF-0.37714297021765253
aa(lp591
F-0.6601284230410649
aF0.37714297021765253
aasg12
((lp592
F0.0
aF0.0
aF0.7602672917410536
tp593
sbsg15
F1.3202568460821298
sg16
(imodels.pose
Pose
p594
(dp595
g19
F0.6840603363504838
sg20
F2.486112930919226
sg21
F-2.3684634935018627
sbsg22
(imodels.polygon
Polygon
p596
(dp597
g6
(lp598
(lp599
F2.277028441023745
aF-0.046891119613879706
aa(lp600
F1.7502515201280375
aF0.4929730814126467
aa(lp601
F2.695197420814707
aF1.4150117923148473
aa(lp602
F3.2219743417104145
aF0.8751475912883209
aasg12
((lp603
F2.486112930919226
aF0.6840603363504838
aF0.7602672917410536
tp604
sbsg32
F0.7542859404353051
sba.(lp0
F-0.42225935287618227
aF2.3874578384223573
a.